target datalayout = "e-m:e-p270:32:32-p271:32:32-p272:64:64-i64:64-i128:128-f80:128-n8:16:32:64-S128"
target triple = "x86_64-pc-linux-gnu"

@hf_openflow_v6_table_desc_length = internal global i32 0, align 4
@hf_openflow_v6_table_desc_table_id = internal global i32 0, align 4
@hf_openflow_v6_table_desc_pad = internal global i32 0, align 4
@hf_openflow_v6_table_desc_config = internal global i32 0, align 4
@hf_openflow_v6_table_desc_config_eviction = internal global i32 0, align 4
@hf_openflow_v6_table_desc_config_vacancy_events = internal global i32 0, align 4
@ett_openflow_v6_table_desc = internal global i32 0, align 4
@ett_openflow_v6_table_desc_config = internal global i32 0, align 4
@.str.1637 = private unnamed_addr constant [11 x i8] c"Table desc\00", align 1

; Function Attrs: null_pointer_is_valid sspstrong uwtable
define internal i32 @dissect_openflow_table_desc_v6(ptr noundef %0, ptr noundef %1, ptr noundef %2, i32 noundef %3, i16 noundef zeroext %4) #0 {
  %6 = alloca ptr, align 8
  %7 = alloca ptr, align 8
  %8 = alloca ptr, align 8
  %9 = alloca i32, align 4
  %10 = alloca i16, align 2
  %11 = alloca ptr, align 8
  %12 = alloca ptr, align 8
  %13 = alloca ptr, align 8
  %14 = alloca i32, align 4
  %15 = alloca i32, align 4
  store ptr %0, ptr %6, align 8
  store ptr %1, ptr %7, align 8
  store ptr %2, ptr %8, align 8
  store i32 %3, ptr %9, align 4
  store i16 %4, ptr %10, align 2
  call void @llvm.lifetime.start.p0(i64 8, ptr %11) #5
  call void @llvm.lifetime.start.p0(i64 8, ptr %12) #5
  call void @llvm.lifetime.start.p0(i64 8, ptr %13) #5
  call void @llvm.lifetime.start.p0(i64 4, ptr %14) #5
  call void @llvm.lifetime.start.p0(i64 4, ptr %15) #5
  %16 = load ptr, ptr %8, align 8
  %17 = load ptr, ptr %6, align 8
  %18 = load i32, ptr %9, align 4
  %19 = load i32, ptr @ett_openflow_v6_table_desc, align 4
  %20 = call ptr @proto_tree_add_subtree(ptr noundef %16, ptr noundef %17, i32 noundef %18, i32 noundef -1, i32 noundef %19, ptr noundef %11, ptr noundef @.str.1637)
  store ptr %20, ptr %12, align 8
  %21 = load ptr, ptr %12, align 8
  %22 = load i32, ptr @hf_openflow_v6_table_desc_length, align 4
  %23 = load ptr, ptr %6, align 8
  %24 = load i32, ptr %9, align 4
  %25 = call ptr @proto_tree_add_item_ret_uint(ptr noundef %21, i32 noundef %22, ptr noundef %23, i32 noundef %24, i32 noundef 2, i32 noundef 0, ptr noundef %14)
  %26 = load ptr, ptr %11, align 8
  %27 = load i32, ptr %14, align 4
  call void @proto_item_set_len(ptr noundef %26, i32 noundef %27)
  %28 = load i32, ptr %9, align 4
  %29 = load i32, ptr %14, align 4
  %30 = add i32 %28, %29
  store i32 %30, ptr %15, align 4
  %31 = load i32, ptr %9, align 4
  %32 = add i32 %31, 2
  store i32 %32, ptr %9, align 4
  %33 = load ptr, ptr %12, align 8
  %34 = load i32, ptr @hf_openflow_v6_table_desc_table_id, align 4
  %35 = load ptr, ptr %6, align 8
  %36 = load i32, ptr %9, align 4
  %37 = call ptr @proto_tree_add_item(ptr noundef %33, i32 noundef %34, ptr noundef %35, i32 noundef %36, i32 noundef 1, i32 noundef 0)
  %38 = load i32, ptr %9, align 4
  %39 = add i32 %38, 1
  store i32 %39, ptr %9, align 4
  %40 = load ptr, ptr %12, align 8
  %41 = load i32, ptr @hf_openflow_v6_table_desc_pad, align 4
  %42 = load ptr, ptr %6, align 8
  %43 = load i32, ptr %9, align 4
  %44 = call ptr @proto_tree_add_item(ptr noundef %40, i32 noundef %41, ptr noundef %42, i32 noundef %43, i32 noundef 1, i32 noundef 0)
  %45 = load i32, ptr %9, align 4
  %46 = add i32 %45, 1
  store i32 %46, ptr %9, align 4
  %47 = load ptr, ptr %12, align 8
  %48 = load i32, ptr @hf_openflow_v6_table_desc_config, align 4
  %49 = load ptr, ptr %6, align 8
  %50 = load i32, ptr %9, align 4
  %51 = call ptr @proto_tree_add_item(ptr noundef %47, i32 noundef %48, ptr noundef %49, i32 noundef %50, i32 noundef 4, i32 noundef 0)
  store ptr %51, ptr %11, align 8
  %52 = load ptr, ptr %11, align 8
  %53 = load i32, ptr @ett_openflow_v6_table_desc_config, align 4
  %54 = call ptr @proto_item_add_subtree(ptr noundef %52, i32 noundef %53)
  store ptr %54, ptr %13, align 8
  %55 = load ptr, ptr %13, align 8
  %56 = load i32, ptr @hf_openflow_v6_table_desc_config_eviction, align 4
  %57 = load ptr, ptr %6, align 8
  %58 = load i32, ptr %9, align 4
  %59 = call ptr @proto_tree_add_item(ptr noundef %55, i32 noundef %56, ptr noundef %57, i32 noundef %58, i32 noundef 4, i32 noundef 0)
  %60 = load ptr, ptr %13, align 8
  %61 = load i32, ptr @hf_openflow_v6_table_desc_config_vacancy_events, align 4
  %62 = load ptr, ptr %6, align 8
  %63 = load i32, ptr %9, align 4
  %64 = call ptr @proto_tree_add_item(ptr noundef %60, i32 noundef %61, ptr noundef %62, i32 noundef %63, i32 noundef 4, i32 noundef 0)
  %65 = load i32, ptr %9, align 4
  %66 = add i32 %65, 4
  store i32 %66, ptr %9, align 4
  br label %67

67:                                               ; preds = %71, %5
  %68 = load i32, ptr %9, align 4
  %69 = load i32, ptr %15, align 4
  %70 = icmp slt i32 %68, %69
  br i1 %70, label %71, label %78

71:                                               ; preds = %67
  %72 = load ptr, ptr %6, align 8
  %73 = load ptr, ptr %7, align 8
  %74 = load ptr, ptr %12, align 8
  %75 = load i32, ptr %9, align 4
  %76 = load i16, ptr %10, align 2
  %77 = call i32 @dissect_openflow_tablemod_prop_v6(ptr noundef %72, ptr noundef %73, ptr noundef %74, i32 noundef %75, i16 noundef zeroext %76)
  store i32 %77, ptr %9, align 4
  br label %67, !llvm.loop !56

78:                                               ; preds = %67
  %79 = load i32, ptr %9, align 4
  call void @llvm.lifetime.end.p0(i64 4, ptr %15) #5
  call void @llvm.lifetime.end.p0(i64 4, ptr %14) #5
  call void @llvm.lifetime.end.p0(i64 8, ptr %13) #5
  call void @llvm.lifetime.end.p0(i64 8, ptr %12) #5
  call void @llvm.lifetime.end.p0(i64 8, ptr %11) #5
  ret i32 %79
}