; Function Attrs: null_pointer_is_valid sspstrong uwtable
define internal fastcc i32 @dissect_openflow_table_desc_v6(ptr noundef %0, ptr noundef %1, ptr noundef %2, i32 noundef %3, i16 noundef zeroext %4) unnamed_addr #0 {
  %6 = alloca ptr, align 8
  %7 = alloca i32, align 4
  call void @llvm.lifetime.start.p0(i64 8, ptr nonnull %6) #4
  call void @llvm.lifetime.start.p0(i64 4, ptr nonnull %7) #4
  %8 = load i32, ptr @ett_openflow_v6_table_desc, align 4
  %9 = call ptr @proto_tree_add_subtree(ptr noundef %2, ptr noundef %0, i32 noundef %3, i32 noundef -1, i32 noundef %8, ptr noundef nonnull %6, ptr noundef nonnull @.str.1637)
  %10 = load i32, ptr @hf_openflow_v6_table_desc_length, align 4
  %11 = call ptr @proto_tree_add_item_ret_uint(ptr noundef %9, i32 noundef %10, ptr noundef %0, i32 noundef %3, i32 noundef 2, i32 noundef 0, ptr noundef nonnull %7)
  %12 = load ptr, ptr %6, align 8
  %13 = load i32, ptr %7, align 4
  call void @proto_item_set_len(ptr noundef %12, i32 noundef %13)
  %14 = load i32, ptr %7, align 4
  %15 = add i32 %14, %3
  %16 = add i32 %3, 2
  %17 = load i32, ptr @hf_openflow_v6_table_desc_table_id, align 4
  %18 = call ptr @proto_tree_add_item(ptr noundef %9, i32 noundef %17, ptr noundef %0, i32 noundef %16, i32 noundef 1, i32 noundef 0)
  %19 = add i32 %3, 3
  %20 = load i32, ptr @hf_openflow_v6_table_desc_pad, align 4
  %21 = call ptr @proto_tree_add_item(ptr noundef %9, i32 noundef %20, ptr noundef %0, i32 noundef %19, i32 noundef 1, i32 noundef 0)
  %22 = add i32 %3, 4
  %23 = load i32, ptr @hf_openflow_v6_table_desc_config, align 4
  %24 = call ptr @proto_tree_add_item(ptr noundef %9, i32 noundef %23, ptr noundef %0, i32 noundef %22, i32 noundef 4, i32 noundef 0)
  store ptr %24, ptr %6, align 8
  %25 = load i32, ptr @ett_openflow_v6_table_desc_config, align 4
  %26 = call ptr @proto_item_add_subtree(ptr noundef %24, i32 noundef %25)
  %27 = load i32, ptr @hf_openflow_v6_table_desc_config_eviction, align 4
  %28 = call ptr @proto_tree_add_item(ptr noundef %26, i32 noundef %27, ptr noundef %0, i32 noundef %22, i32 noundef 4, i32 noundef 0)
  %29 = load i32, ptr @hf_openflow_v6_table_desc_config_vacancy_events, align 4
  %30 = call ptr @proto_tree_add_item(ptr noundef %26, i32 noundef %29, ptr noundef %0, i32 noundef %22, i32 noundef 4, i32 noundef 0)
  %31 = add i32 %3, 8
  %32 = icmp slt i32 %31, %15
  br i1 %32, label %.lr.ph, label %._crit_edge

.lr.ph:                                           ; preds = %5, %.lr.ph
  %.033 = phi i32 [ %33, %.lr.ph ], [ %31, %5 ]
  %33 = call fastcc i32 @dissect_openflow_tablemod_prop_v6(ptr noundef %0, ptr noundef %1, ptr noundef %9, i32 noundef %.033, i16 noundef zeroext %4)
  %34 = icmp slt i32 %33, %15
  br i1 %34, label %.lr.ph, label %._crit_edge, !llvm.loop !58

._crit_edge:                                      ; preds = %.lr.ph, %5
  %.0.lcssa = phi i32 [ %31, %5 ], [ %33, %.lr.ph ]
  call void @llvm.lifetime.end.p0(i64 4, ptr nonnull %7) #4
  call void @llvm.lifetime.end.p0(i64 8, ptr nonnull %6) #4
  ret i32 %.0.lcssa
}